; Function Attrs: mustprogress uwtable
define internal fastcc noundef nonnull align 8 dereferenceable(112) ptr @_ZN16cmArgumentParserIZN12_GLOBAL__N_112HandleRenameERKSt6vectorINSt7__cxx1112basic_stringIcSt11char_traitsIcESaIcEEESaIS7_EER17cmExecutionStatusE9ArgumentsE4BindIMSE_S7_SE_S7_vvEERSF_N2cm18static_string_viewET_(ptr noundef nonnull returned align 8 dereferenceable(112) %0, i64 %1, ptr %2) unnamed_addr #5 align 2 personality ptr @__gxx_personality_v0 {
  %4 = alloca %"class.std::function.244", align 8
  %5 = getelementptr inbounds nuw i8, ptr %4, i64 16
  %6 = getelementptr inbounds nuw i8, ptr %4, i64 24
  %7 = getelementptr inbounds nuw i8, ptr %4, i64 8
  store i64 0, ptr %7, align 8
  store i64 8, ptr %4, align 8, !tbaa !14
  store ptr @_ZNSt17_Function_handlerIFvRN14ArgumentParser8InstanceEEZN16cmArgumentParserIZN12_GLOBAL__N_112HandleRenameERKSt6vectorINSt7__cxx1112basic_stringIcSt11char_traitsIcESaIcEEESaISC_EER17cmExecutionStatusE9ArgumentsE4BindIMSJ_SC_SJ_SC_vvEERSK_N2cm18static_string_viewET_EUlS2_E_E9_M_invokeERKSt9_Any_dataS2_, ptr %6, align 8, !tbaa !397
  store ptr @_ZNSt17_Function_handlerIFvRN14ArgumentParser8InstanceEEZN16cmArgumentParserIZN12_GLOBAL__N_112HandleRenameERKSt6vectorINSt7__cxx1112basic_stringIcSt11char_traitsIcESaIcEEESaISC_EER17cmExecutionStatusE9ArgumentsE4BindIMSJ_SC_SJ_SC_vvEERSK_N2cm18static_string_viewET_EUlS2_E_E10_M_managerERSt9_Any_dataRKST_St18_Manager_operation, ptr %5, align 8, !tbaa !107
  invoke void @_ZN14ArgumentParser4Base4BindESt17basic_string_viewIcSt11char_traitsIcEESt8functionIFvRNS_8InstanceEEE(ptr noundef nonnull align 8 dereferenceable(112) %0, i64 %1, ptr %2, ptr noundef nonnull %4)
          to label %8 unwind label %15

8:                                                ; preds = %3
  %9 = load ptr, ptr %5, align 8, !tbaa !107
  %.not.i = icmp eq ptr %9, null
  br i1 %.not.i, label %_ZNSt14_Function_baseD2Ev.exit, label %10

10:                                               ; preds = %8
  %11 = invoke noundef zeroext i1 %9(ptr noundef nonnull align 8 dereferenceable(32) %4, ptr noundef nonnull align 8 dereferenceable(32) %4, i32 noundef 3)
          to label %_ZNSt14_Function_baseD2Ev.exit unwind label %12

12:                                               ; preds = %10
  %13 = landingpad { ptr, i32 }
          catch ptr null
  %14 = extractvalue { ptr, i32 } %13, 0
  call void @__clang_call_terminate(ptr %14) #31
  unreachable

_ZNSt14_Function_baseD2Ev.exit:                   ; preds = %8, %10
  ret ptr %0

15:                                               ; preds = %3
  %16 = landingpad { ptr, i32 }
          cleanup
  %17 = load ptr, ptr %5, align 8, !tbaa !107
  %.not.i5 = icmp eq ptr %17, null
  br i1 %.not.i5, label %_ZNSt14_Function_baseD2Ev.exit6, label %18

18:                                               ; preds = %15
  %19 = invoke noundef zeroext i1 %17(ptr noundef nonnull align 8 dereferenceable(32) %4, ptr noundef nonnull align 8 dereferenceable(32) %4, i32 noundef 3)
          to label %_ZNSt14_Function_baseD2Ev.exit6 unwind label %20

20:                                               ; preds = %18
  %21 = landingpad { ptr, i32 }
          catch ptr null
  %22 = extractvalue { ptr, i32 } %21, 0
  call void @__clang_call_terminate(ptr %22) #31
  unreachable

_ZNSt14_Function_baseD2Ev.exit6:                  ; preds = %15, %18
  resume { ptr, i32 } %16
}